; Function Attrs: mustprogress nounwind uwtable
define dso_local void @_ZN4node13HistogramBase8GetCountERKN2v820FunctionCallbackInfoINS1_5ValueEEE(ptr nocapture noundef nonnull readonly align 8 dereferenceable(20) %args) #3 align 2 {
entry:
  %0 = load ptr, ptr %args, align 8
  %1 = load i64, ptr %0, align 8
  %sub.i41.i = add i64 %1, -1
  %2 = inttoptr i64 %sub.i41.i to ptr
  %3 = load i64, ptr %2, align 8
  %sub.i35.i = add i64 %3, 11
  %4 = inttoptr i64 %sub.i35.i to ptr
  %5 = load i16, ptr %4, align 2
  %conv.i.i = zext i16 %5 to i32
  %cmp.i.i7 = icmp eq i16 %5, 1040
  %sub.i.i = add nsw i32 %conv.i.i, -1057
  %cmp1.i.i = icmp ult i32 %sub.i.i, 1002
  %6 = select i1 %cmp.i.i7, i1 true, i1 %cmp1.i.i
  br i1 %6, label %if.then.i.i, label %if.end.i.i

if.then.i.i:                                      ; preds = %entry
  %sub.i47.i = add i64 %1, 31
  %7 = inttoptr i64 %sub.i47.i to ptr
  %8 = load i64, ptr %7, align 8
  %9 = inttoptr i64 %8 to ptr
  br label %_ZN4node10BaseObject12FromJSObjectEN2v85LocalINS1_5ValueEEE.exit

if.end.i.i:                                       ; preds = %entry
  %call7.i.i = tail call noundef ptr @_ZN2v86Object38SlowGetAlignedPointerFromInternalFieldEi(ptr noundef nonnull align 1 dereferenceable(1) %0, i32 noundef 1) #15
  br label %_ZN4node10BaseObject12FromJSObjectEN2v85LocalINS1_5ValueEEE.exit

_ZN4node10BaseObject12FromJSObjectEN2v85LocalINS1_5ValueEEE.exit: ; preds = %if.then.i.i, %if.end.i.i
  %retval.i11.0.i = phi ptr [ %9, %if.then.i.i ], [ %call7.i.i, %if.end.i.i ]
  %cmp = icmp eq ptr %retval.i11.0.i, null
  br i1 %cmp, label %return, label %do.end

do.end:                                           ; preds = %_ZN4node10BaseObject12FromJSObjectEN2v85LocalINS1_5ValueEEE.exit
  %add.ptr = getelementptr inbounds i8, ptr %retval.i11.0.i, i64 32
  %10 = load ptr, ptr %add.ptr, align 8
  %mutex_.i = getelementptr inbounds i8, ptr %10, i64 40
  tail call void @uv_mutex_lock(ptr noundef nonnull %mutex_.i) #15
  %count_.i = getelementptr inbounds i8, ptr %10, i64 32
  %11 = load i64, ptr %count_.i, align 8
  tail call void @uv_mutex_unlock(ptr noundef nonnull %mutex_.i) #15
  %conv = uitofp i64 %11 to double
  %12 = load ptr, ptr %args, align 8
  %arrayidx.i = getelementptr inbounds i8, ptr %12, i64 24
  %arrayidx.i41 = getelementptr inbounds i8, ptr %12, i64 8
  %13 = load ptr, ptr %arrayidx.i41, align 8
  %call2.i = tail call ptr @_ZN2v86Number3NewEPNS_7IsolateEd(ptr noundef %13, double noundef %conv) #15
  %cmp.i.i = icmp eq ptr %call2.i, null
  br i1 %cmp.i.i, label %if.then.i, label %return.sink.split

if.then.i:                                        ; preds = %do.end
  %14 = load ptr, ptr %arrayidx.i41, align 8
  %15 = ptrtoint ptr %14 to i64
  %add1.i.i = add i64 %15, 616
  %16 = inttoptr i64 %add1.i.i to ptr
  br label %return.sink.split

return.sink.split:                                ; preds = %do.end, %if.then.i
  %.sink8 = phi ptr [ %16, %if.then.i ], [ %call2.i, %do.end ]
  %17 = load i64, ptr %.sink8, align 8
  store i64 %17, ptr %arrayidx.i, align 8
  br label %return

return:                                           ; preds = %return.sink.split, %_ZN4node10BaseObject12FromJSObjectEN2v85LocalINS1_5ValueEEE.exit
  ret void
}